; ModuleID = '50/1713.c'
source_filename = "50/1713.c"
target datalayout = "e-m:e-p270:32:32-p271:32:32-p272:64:64-i64:64-f80:128-n8:16:32:64-S128"
target triple = "x86_64-pc-linux-gnu"

@.str = private unnamed_addr constant [3 x i8] c"%d\00", align 1
@.str.1 = private unnamed_addr constant [3 x i8] c"1\0A\00", align 1
@.str.2 = private unnamed_addr constant [4 x i8] c"10\0A\00", align 1
@.str.3 = private unnamed_addr constant [3 x i8] c"5\0A\00", align 1
@.str.4 = private unnamed_addr constant [3 x i8] c"9\0A\00", align 1
@.str.5 = private unnamed_addr constant [4 x i8] c"12\0A\00", align 1
@.str.6 = private unnamed_addr constant [3 x i8] c"8\0A\00", align 1
@.str.7 = private unnamed_addr constant [3 x i8] c"2\0A\00", align 1
@.str.8 = private unnamed_addr constant [3 x i8] c"3\0A\00", align 1
@.str.9 = private unnamed_addr constant [4 x i8] c"11\0A\00", align 1
@.str.10 = private unnamed_addr constant [3 x i8] c"4\0A\00", align 1
@.str.11 = private unnamed_addr constant [3 x i8] c"7\0A\00", align 1
@.str.12 = private unnamed_addr constant [3 x i8] c"6\0A\00", align 1

; Function Attrs: noinline nounwind uwtable
define dso_local i32 @main() #0 {
  %1 = alloca i32, align 4
  %2 = alloca i32, align 4
  %3 = alloca i32, align 4
  %4 = alloca i32, align 4
  store i32 0, i32* %1, align 4
  %5 = call i32 (i8*, ...) @__isoc99_scanf(i8* getelementptr inbounds ([3 x i8], [3 x i8]* @.str, i64 0, i64 0), i32* %2)
  %6 = load i32, i32* %2, align 4
  %7 = icmp eq i32 %6, 7
  br i1 %7, label %8, label %11

8:                                                ; preds = %0
  %9 = call i32 (i8*, ...) @printf(i8* getelementptr inbounds ([3 x i8], [3 x i8]* @.str.1, i64 0, i64 0))
  %10 = call i32 (i8*, ...) @printf(i8* getelementptr inbounds ([4 x i8], [4 x i8]* @.str.2, i64 0, i64 0))
  br label %11

11:                                               ; preds = %8, %0
  %12 = load i32, i32* %2, align 4
  %13 = icmp eq i32 %12, 6
  br i1 %13, label %14, label %16

14:                                               ; preds = %11
  %15 = call i32 (i8*, ...) @printf(i8* getelementptr inbounds ([3 x i8], [3 x i8]* @.str.3, i64 0, i64 0))
  br label %16

16:                                               ; preds = %14, %11
  %17 = load i32, i32* %2, align 4
  %18 = icmp eq i32 %17, 2
  br i1 %18, label %19, label %22

19:                                               ; preds = %16
  %20 = call i32 (i8*, ...) @printf(i8* getelementptr inbounds ([3 x i8], [3 x i8]* @.str.4, i64 0, i64 0))
  %21 = call i32 (i8*, ...) @printf(i8* getelementptr inbounds ([4 x i8], [4 x i8]* @.str.5, i64 0, i64 0))
  br label %22

22:                                               ; preds = %19, %16
  %23 = load i32, i32* %2, align 4
  %24 = icmp eq i32 %23, 5
  br i1 %24, label %25, label %27

25:                                               ; preds = %22
  %26 = call i32 (i8*, ...) @printf(i8* getelementptr inbounds ([3 x i8], [3 x i8]* @.str.6, i64 0, i64 0))
  br label %27

27:                                               ; preds = %25, %22
  %28 = load i32, i32* %2, align 4
  %29 = icmp eq i32 %28, 4
  br i1 %29, label %30, label %34

30:                                               ; preds = %27
  %31 = call i32 (i8*, ...) @printf(i8* getelementptr inbounds ([3 x i8], [3 x i8]* @.str.7, i64 0, i64 0))
  %32 = call i32 (i8*, ...) @printf(i8* getelementptr inbounds ([3 x i8], [3 x i8]* @.str.8, i64 0, i64 0))
  %33 = call i32 (i8*, ...) @printf(i8* getelementptr inbounds ([4 x i8], [4 x i8]* @.str.9, i64 0, i64 0))
  br label %34

34:                                               ; preds = %30, %27
  %35 = load i32, i32* %2, align 4
  %36 = icmp eq i32 %35, 1
  br i1 %36, label %37, label %40

37:                                               ; preds = %34
  %38 = call i32 (i8*, ...) @printf(i8* getelementptr inbounds ([3 x i8], [3 x i8]* @.str.10, i64 0, i64 0))
  %39 = call i32 (i8*, ...) @printf(i8* getelementptr inbounds ([3 x i8], [3 x i8]* @.str.11, i64 0, i64 0))
  br label %40

40:                                               ; preds = %37, %34
  %41 = load i32, i32* %2, align 4
  %42 = icmp eq i32 %41, 3
  br i1 %42, label %43, label %45

43:                                               ; preds = %40
  %44 = call i32 (i8*, ...) @printf(i8* getelementptr inbounds ([3 x i8], [3 x i8]* @.str.12, i64 0, i64 0))
  br label %45

45:                                               ; preds = %43, %40
  ret i32 0
}

declare dso_local i32 @__isoc99_scanf(i8*, ...) #1

declare dso_local i32 @printf(i8*, ...) #1


!llvm.module.flags = !{!0}
!llvm.ident = !{!1}

!0 = !{i32 1, !"wchar_size", i32 4}
!1 = !{!"clang version 10.0.0-4ubuntu1 "}
